target datalayout = "e-m:e-p270:32:32-p271:32:32-p272:64:64-i64:64-i128:128-f80:128-n8:16:32:64-S128"
target triple = "x86_64-pc-linux-gnu"

%class.File = type { ptr, i64, i8, i32, i8, i8, i32, i8, i8, i8, i8, i8, i64, i8, [2048 x i32], i32, ptr }

; Function Attrs: mustprogress uwtable
define noundef zeroext i1 @_ZN4File6DeleteEv(ptr noundef nonnull align 8 dereferenceable(8256) %0) #1 align 2 {
  %2 = alloca i1, align 1
  %3 = alloca ptr, align 8
  store ptr %0, ptr %3, align 8
  %4 = load ptr, ptr %3, align 8
  %5 = getelementptr inbounds %class.File, ptr %4, i32 0, i32 3
  %6 = load i32, ptr %5, align 4
  %7 = icmp ne i32 %6, 0
  br i1 %7, label %8, label %9

8:                                                ; preds = %1
  store i1 false, ptr %2, align 1
  br label %27

9:                                                ; preds = %1
  %10 = getelementptr inbounds %class.File, ptr %4, i32 0, i32 1
  %11 = load i64, ptr %10, align 8
  %12 = icmp ne i64 %11, -1
  br i1 %12, label %13, label %18

13:                                               ; preds = %9
  %14 = load ptr, ptr %4, align 8
  %15 = getelementptr inbounds ptr, ptr %14, i64 3
  %16 = load ptr, ptr %15, align 8
  %17 = call noundef zeroext i1 %16(ptr noundef nonnull align 8 dereferenceable(8256) %4)
  br label %18

18:                                               ; preds = %13, %9
  %19 = getelementptr inbounds %class.File, ptr %4, i32 0, i32 8
  %20 = load i8, ptr %19, align 1
  %21 = trunc i8 %20 to i1
  br i1 %21, label %23, label %22

22:                                               ; preds = %18
  store i1 false, ptr %2, align 1
  br label %27

23:                                               ; preds = %18
  %24 = getelementptr inbounds %class.File, ptr %4, i32 0, i32 14
  %25 = getelementptr inbounds [2048 x i32], ptr %24, i64 0, i64 0
  %26 = call noundef zeroext i1 @_Z7DelFilePKw(ptr noundef %25)
  store i1 %26, ptr %2, align 1
  br label %27

27:                                               ; preds = %23, %22, %8
  %28 = load i1, ptr %2, align 1
  ret i1 %28
}