; Function Attrs: mustprogress uwtable
define noundef zeroext i1 @_ZN4File6DeleteEv(ptr noundef nonnull align 8 dereferenceable(8256) %0) local_unnamed_addr #2 align 2 {
  %2 = getelementptr inbounds i8, ptr %0, i64 20
  %3 = load i32, ptr %2, align 4
  %.not = icmp eq i32 %3, 0
  br i1 %.not, label %4, label %19

4:                                                ; preds = %1
  %5 = getelementptr inbounds i8, ptr %0, i64 8
  %6 = load i64, ptr %5, align 8
  %.not2 = icmp eq i64 %6, -1
  br i1 %.not2, label %12, label %7

7:                                                ; preds = %4
  %8 = load ptr, ptr %0, align 8
  %9 = getelementptr inbounds i8, ptr %8, i64 24
  %10 = load ptr, ptr %9, align 8
  %11 = tail call noundef zeroext i1 %10(ptr noundef nonnull align 8 dereferenceable(8256) %0)
  br label %12

12:                                               ; preds = %7, %4
  %13 = getelementptr inbounds i8, ptr %0, i64 33
  %14 = load i8, ptr %13, align 1
  %15 = trunc i8 %14 to i1
  br i1 %15, label %16, label %19

16:                                               ; preds = %12
  %17 = getelementptr inbounds i8, ptr %0, i64 52
  %18 = tail call noundef zeroext i1 @_Z7DelFilePKw(ptr noundef nonnull %17)
  br label %19

19:                                               ; preds = %12, %1, %16
  %.0 = phi i1 [ %18, %16 ], [ false, %1 ], [ false, %12 ]
  ret i1 %.0
}